; Function Attrs: nounwind uwtable
define hidden void @X11_SetWindowResizable(ptr noundef %0, ptr noundef %1, i1 noundef zeroext %2) local_unnamed_addr #0 {
  %4 = getelementptr inbounds nuw i8, ptr %1, i64 392
  %5 = load ptr, ptr %4, align 8
  %6 = getelementptr inbounds nuw i8, ptr %5, i64 528
  %7 = load i32, ptr %6, align 8
  %8 = and i32 %7, 8
  %.not = icmp eq i32 %8, 0
  br i1 %.not, label %11, label %9

9:                                                ; preds = %3
  %10 = tail call zeroext i1 @X11_SyncWindow(ptr noundef %0, ptr noundef nonnull %1)
  br label %11

11:                                               ; preds = %9, %3
  %12 = getelementptr inbounds nuw i8, ptr %1, i64 72
  %13 = load i64, ptr %12, align 8
  %14 = and i64 %13, 1
  %.not6 = icmp eq i64 %14, 0
  br i1 %.not6, label %15, label %16

15:                                               ; preds = %11
  tail call void @X11_SetWindowMinMax(ptr noundef nonnull %1, i1 noundef zeroext true)
  br label %16

16:                                               ; preds = %15, %11
  ret void
}